target datalayout = "e-m:e-p270:32:32-p271:32:32-p272:64:64-i64:64-i128:128-f80:128-n8:16:32:64-S128"
target triple = "x86_64-pc-linux-gnu"

%struct._zend_class_entry = type { i8, ptr, %union.anon, i32, i32, i32, i32, ptr, ptr, ptr, %struct._zend_array, %struct._zend_array, %struct._zend_array, ptr, ptr, ptr, ptr, ptr, ptr, ptr, ptr, ptr, ptr, ptr, ptr, ptr, ptr, ptr, ptr, ptr, ptr, ptr, %union.anon.3, ptr, ptr, ptr, ptr, i32, i32, %union.anon.4, ptr, ptr, ptr, ptr, i32, ptr, ptr, %union.anon.5 }
%union.anon = type { ptr }
%struct._zend_array = type { %struct._zend_refcounted_h, %union.anon.1, i32, %union.anon.2, i32, i32, i32, i32, i64, ptr }
%struct._zend_refcounted_h = type { i32, %union.anon.0 }
%union.anon.0 = type { i32 }
%union.anon.1 = type { i32 }
%union.anon.2 = type { ptr }
%union.anon.3 = type { ptr }
%union.anon.4 = type { ptr }
%union.anon.5 = type { %struct.anon.6 }
%struct.anon.6 = type { ptr, i32, i32 }
%struct._zend_object_handlers = type { i32, ptr, ptr, ptr, ptr, ptr, ptr, ptr, ptr, ptr, ptr, ptr, ptr, ptr, ptr, ptr, ptr, ptr, ptr, ptr, ptr, ptr, ptr, ptr, ptr }
%struct._zend_object_iterator = type { %struct._zend_object, %struct._zval_struct, ptr, i64 }
%struct._zend_object = type { %struct._zend_refcounted_h, i32, ptr, ptr, ptr, [1 x %struct._zval_struct] }
%struct._zval_struct = type { %union._zend_value, %union.anon.9, %union.anon.12 }
%union._zend_value = type { i64 }
%union.anon.9 = type { i32 }
%union.anon.12 = type { i32 }
%struct._zend_object_iterator_funcs = type { ptr, ptr, ptr, ptr, ptr, ptr, ptr, ptr }

@zend_iterator_class_entry = internal global %struct._zend_class_entry zeroinitializer, align 8
@zend_string_init_interned = external global ptr, align 8
@.str = private unnamed_addr constant [19 x i8] c"__iterator_wrapper\00", align 1
@std_object_handlers = external constant %struct._zend_object_handlers, align 8
@iterator_object_handlers = internal constant %struct._zend_object_handlers { i32 0, ptr @iter_wrapper_free, ptr @iter_wrapper_dtor, ptr null, ptr null, ptr null, ptr null, ptr null, ptr null, ptr null, ptr null, ptr null, ptr null, ptr null, ptr null, ptr null, ptr null, ptr null, ptr null, ptr null, ptr null, ptr @iter_wrapper_get_gc, ptr null, ptr null, ptr null }, align 8

; Function Attrs: nounwind uwtable
define void @zend_register_iterator_wrapper() #0 {
  call void @llvm.memset.p0.i64(ptr align 8 @zend_iterator_class_entry, i8 0, i64 512, i1 false)
  %1 = load ptr, ptr @zend_string_init_interned, align 8
  %2 = call ptr %1(ptr noundef @.str, i64 noundef 18, i1 noundef zeroext true)
  store ptr %2, ptr getelementptr inbounds (%struct._zend_class_entry, ptr @zend_iterator_class_entry, i32 0, i32 1), align 8
  store ptr @std_object_handlers, ptr getelementptr inbounds (%struct._zend_class_entry, ptr @zend_iterator_class_entry, i32 0, i32 29), align 8
  store ptr null, ptr getelementptr inbounds (%struct._zend_class_entry, ptr @zend_iterator_class_entry, i32 0, i32 47), align 8
  store ptr @iterator_object_handlers, ptr getelementptr inbounds (%struct._zend_class_entry, ptr @zend_iterator_class_entry, i32 0, i32 29), align 8
  ret void
}

; Function Attrs: nocallback nofree nounwind willreturn memory(argmem: write)
declare void @llvm.memset.p0.i64(ptr nocapture writeonly, i8, i64, i1 immarg) #1

; Function Attrs: nounwind uwtable
define void @zend_iterator_init(ptr noundef %0) #0 {
  %2 = alloca ptr, align 8
  store ptr %0, ptr %2, align 8
  %3 = load ptr, ptr %2, align 8
  %4 = getelementptr inbounds %struct._zend_object_iterator, ptr %3, i32 0, i32 0
  call void @zend_object_std_init(ptr noundef %4, ptr noundef @zend_iterator_class_entry)
  ret void
}

declare void @zend_object_std_init(ptr noundef, ptr noundef) #2

; Function Attrs: nounwind uwtable
define void @zend_iterator_dtor(ptr noundef %0) #0 {
  %2 = alloca ptr, align 8
  %3 = alloca ptr, align 8
  store ptr %0, ptr %3, align 8
  %4 = load ptr, ptr %3, align 8
  %5 = getelementptr inbounds %struct._zend_object_iterator, ptr %4, i32 0, i32 0
  %6 = getelementptr inbounds %struct._zend_object, ptr %5, i32 0, i32 0
  store ptr %6, ptr %2, align 8
  %7 = load ptr, ptr %2, align 8
  %8 = load i32, ptr %7, align 4
  %9 = icmp ugt i32 %8, 0
  call void @llvm.assume(i1 %9)
  %10 = load ptr, ptr %2, align 8
  %11 = load i32, ptr %10, align 4
  %12 = add i32 %11, -1
  store i32 %12, ptr %10, align 4
  %13 = icmp ugt i32 %12, 0
  br i1 %13, label %14, label %15

14:                                               ; preds = %1
  br label %18

15:                                               ; preds = %1
  %16 = load ptr, ptr %3, align 8
  %17 = getelementptr inbounds %struct._zend_object_iterator, ptr %16, i32 0, i32 0
  call void @zend_objects_store_del(ptr noundef %17)
  br label %18

18:                                               ; preds = %15, %14
  ret void
}

declare void @zend_objects_store_del(ptr noundef) #2

; Function Attrs: nounwind uwtable
define ptr @zend_iterator_unwrap(ptr noundef %0) #0 {
  %2 = alloca ptr, align 8
  %3 = alloca ptr, align 8
  store ptr %0, ptr %3, align 8
  %4 = load ptr, ptr %3, align 8
  %5 = getelementptr inbounds %struct._zval_struct, ptr %4, i32 0, i32 0
  %6 = load ptr, ptr %5, align 8
  %7 = getelementptr inbounds %struct._zend_object, ptr %6, i32 0, i32 3
  %8 = load ptr, ptr %7, align 8
  %9 = icmp eq ptr %8, @iterator_object_handlers
  br i1 %9, label %10, label %14

10:                                               ; preds = %1
  %11 = load ptr, ptr %3, align 8
  %12 = getelementptr inbounds %struct._zval_struct, ptr %11, i32 0, i32 0
  %13 = load ptr, ptr %12, align 8
  store ptr %13, ptr %2, align 8
  br label %15

14:                                               ; preds = %1
  store ptr null, ptr %2, align 8
  br label %15

15:                                               ; preds = %14, %10
  %16 = load ptr, ptr %2, align 8
  ret ptr %16
}

; Function Attrs: nounwind uwtable
define internal void @iter_wrapper_free(ptr noundef %0) #0 {
  %2 = alloca ptr, align 8
  %3 = alloca ptr, align 8
  store ptr %0, ptr %2, align 8
  %4 = load ptr, ptr %2, align 8
  store ptr %4, ptr %3, align 8
  %5 = load ptr, ptr %3, align 8
  %6 = getelementptr inbounds %struct._zend_object_iterator, ptr %5, i32 0, i32 2
  %7 = load ptr, ptr %6, align 8
  %8 = getelementptr inbounds %struct._zend_object_iterator_funcs, ptr %7, i32 0, i32 0
  %9 = load ptr, ptr %8, align 8
  %10 = load ptr, ptr %3, align 8
  call void %9(ptr noundef %10)
  ret void
}

; Function Attrs: nounwind uwtable
define internal void @iter_wrapper_dtor(ptr noundef %0) #0 {
  %2 = alloca ptr, align 8
  store ptr %0, ptr %2, align 8
  ret void
}

; Function Attrs: nounwind uwtable
define internal ptr @iter_wrapper_get_gc(ptr noundef %0, ptr noundef %1, ptr noundef %2) #0 {
  %4 = alloca ptr, align 8
  %5 = alloca ptr, align 8
  %6 = alloca ptr, align 8
  %7 = alloca ptr, align 8
  %8 = alloca ptr, align 8
  store ptr %0, ptr %5, align 8
  store ptr %1, ptr %6, align 8
  store ptr %2, ptr %7, align 8
  %9 = load ptr, ptr %5, align 8
  store ptr %9, ptr %8, align 8
  %10 = load ptr, ptr %8, align 8
  %11 = getelementptr inbounds %struct._zend_object_iterator, ptr %10, i32 0, i32 2
  %12 = load ptr, ptr %11, align 8
  %13 = getelementptr inbounds %struct._zend_object_iterator_funcs, ptr %12, i32 0, i32 7
  %14 = load ptr, ptr %13, align 8
  %15 = icmp ne ptr %14, null
  br i1 %15, label %16, label %26

16:                                               ; preds = %3
  %17 = load ptr, ptr %8, align 8
  %18 = getelementptr inbounds %struct._zend_object_iterator, ptr %17, i32 0, i32 2
  %19 = load ptr, ptr %18, align 8
  %20 = getelementptr inbounds %struct._zend_object_iterator_funcs, ptr %19, i32 0, i32 7
  %21 = load ptr, ptr %20, align 8
  %22 = load ptr, ptr %8, align 8
  %23 = load ptr, ptr %6, align 8
  %24 = load ptr, ptr %7, align 8
  %25 = call ptr %21(ptr noundef %22, ptr noundef %23, ptr noundef %24)
  store ptr %25, ptr %4, align 8
  br label %29

26:                                               ; preds = %3
  %27 = load ptr, ptr %6, align 8
  store ptr null, ptr %27, align 8
  %28 = load ptr, ptr %7, align 8
  store i32 0, ptr %28, align 4
  store ptr null, ptr %4, align 8
  br label %29

29:                                               ; preds = %26, %16
  %30 = load ptr, ptr %4, align 8
  ret ptr %30
}

; Function Attrs: nocallback nofree nosync nounwind willreturn memory(inaccessiblemem: write)
declare void @llvm.assume(i1 noundef) #3


!llvm.module.flags = !{!0, !1, !2, !3}

!0 = !{i32 1, !"wchar_size", i32 4}
!1 = !{i32 8, !"PIC Level", i32 2}
!2 = !{i32 7, !"uwtable", i32 2}
!3 = !{i32 7, !"frame-pointer", i32 2}
