; ModuleID = 'bench/php/original/zend_iterators.ll'
source_filename = "bench/php/original/zend_iterators.ll"
target datalayout = "e-m:e-p270:32:32-p271:32:32-p272:64:64-i64:64-i128:128-f80:128-n8:16:32:64-S128"
target triple = "x86_64-pc-linux-gnu"

%struct._zend_class_entry = type { i8, ptr, %union.anon, i32, i32, i32, i32, ptr, ptr, ptr, %struct._zend_array, %struct._zend_array, %struct._zend_array, ptr, ptr, ptr, ptr, ptr, ptr, ptr, ptr, ptr, ptr, ptr, ptr, ptr, ptr, ptr, ptr, ptr, ptr, ptr, %union.anon.3, ptr, ptr, ptr, ptr, i32, i32, %union.anon.4, ptr, ptr, ptr, ptr, i32, ptr, ptr, %union.anon.5 }
%union.anon = type { ptr }
%struct._zend_array = type { %struct._zend_refcounted_h, %union.anon.1, i32, %union.anon.2, i32, i32, i32, i32, i64, ptr }
%struct._zend_refcounted_h = type { i32, %union.anon.0 }
%union.anon.0 = type { i32 }
%union.anon.1 = type { i32 }
%union.anon.2 = type { ptr }
%union.anon.3 = type { ptr }
%union.anon.4 = type { ptr }
%union.anon.5 = type { %struct.anon.6 }
%struct.anon.6 = type { ptr, i32, i32 }
%struct._zend_object_handlers = type { i32, ptr, ptr, ptr, ptr, ptr, ptr, ptr, ptr, ptr, ptr, ptr, ptr, ptr, ptr, ptr, ptr, ptr, ptr, ptr, ptr, ptr, ptr, ptr, ptr }

@zend_iterator_class_entry = internal global %struct._zend_class_entry zeroinitializer, align 8
@zend_string_init_interned = external local_unnamed_addr global ptr, align 8
@.str = private unnamed_addr constant [19 x i8] c"__iterator_wrapper\00", align 1
@iterator_object_handlers = internal constant %struct._zend_object_handlers { i32 0, ptr @iter_wrapper_free, ptr @iter_wrapper_dtor, ptr null, ptr null, ptr null, ptr null, ptr null, ptr null, ptr null, ptr null, ptr null, ptr null, ptr null, ptr null, ptr null, ptr null, ptr null, ptr null, ptr null, ptr null, ptr @iter_wrapper_get_gc, ptr null, ptr null, ptr null }, align 8

; Function Attrs: nounwind uwtable
define void @zend_register_iterator_wrapper() local_unnamed_addr #0 {
  tail call void @llvm.memset.p0.i64(ptr noundef nonnull align 8 dereferenceable(512) @zend_iterator_class_entry, i8 0, i64 512, i1 false)
  %1 = load ptr, ptr @zend_string_init_interned, align 8
  %2 = tail call ptr %1(ptr noundef nonnull @.str, i64 noundef 18, i1 noundef zeroext true) #6
  store ptr %2, ptr getelementptr inbounds (%struct._zend_class_entry, ptr @zend_iterator_class_entry, i64 0, i32 1), align 8
  store ptr null, ptr getelementptr inbounds (%struct._zend_class_entry, ptr @zend_iterator_class_entry, i64 0, i32 47), align 8
  store ptr @iterator_object_handlers, ptr getelementptr inbounds (%struct._zend_class_entry, ptr @zend_iterator_class_entry, i64 0, i32 29), align 8
  ret void
}

; Function Attrs: mustprogress nocallback nofree nounwind willreturn memory(argmem: write)
declare void @llvm.memset.p0.i64(ptr nocapture writeonly, i8, i64, i1 immarg) #1

; Function Attrs: nounwind uwtable
define void @zend_iterator_init(ptr noundef %0) local_unnamed_addr #0 {
  tail call void @zend_object_std_init(ptr noundef %0, ptr noundef nonnull @zend_iterator_class_entry) #6
  ret void
}

declare void @zend_object_std_init(ptr noundef, ptr noundef) local_unnamed_addr #2

; Function Attrs: nounwind uwtable
define void @zend_iterator_dtor(ptr noundef %0) local_unnamed_addr #0 {
  %2 = load i32, ptr %0, align 4
  %3 = icmp ne i32 %2, 0
  tail call void @llvm.assume(i1 %3)
  %4 = add i32 %2, -1
  store i32 %4, ptr %0, align 4
  %.not = icmp eq i32 %4, 0
  br i1 %.not, label %5, label %6

5:                                                ; preds = %1
  tail call void @zend_objects_store_del(ptr noundef nonnull %0) #6
  br label %6

6:                                                ; preds = %1, %5
  ret void
}

declare void @zend_objects_store_del(ptr noundef) local_unnamed_addr #2

; Function Attrs: mustprogress nofree norecurse nosync nounwind willreturn memory(read, inaccessiblemem: none) uwtable
define ptr @zend_iterator_unwrap(ptr nocapture noundef readonly %0) local_unnamed_addr #3 {
  %2 = load ptr, ptr %0, align 8
  %3 = getelementptr inbounds i8, ptr %2, i64 24
  %4 = load ptr, ptr %3, align 8
  %5 = icmp eq ptr %4, @iterator_object_handlers
  %. = select i1 %5, ptr %2, ptr null
  ret ptr %.
}

; Function Attrs: nounwind uwtable
define internal void @iter_wrapper_free(ptr noundef %0) #0 {
  %2 = getelementptr inbounds i8, ptr %0, i64 72
  %3 = load ptr, ptr %2, align 8
  %4 = load ptr, ptr %3, align 8
  tail call void %4(ptr noundef %0) #6
  ret void
}

; Function Attrs: mustprogress nofree norecurse nosync nounwind willreturn memory(none) uwtable
define internal void @iter_wrapper_dtor(ptr nocapture readnone %0) #4 {
  ret void
}

; Function Attrs: nounwind uwtable
define internal ptr @iter_wrapper_get_gc(ptr noundef %0, ptr noundef %1, ptr noundef %2) #0 {
  %4 = getelementptr inbounds i8, ptr %0, i64 72
  %5 = load ptr, ptr %4, align 8
  %6 = getelementptr inbounds i8, ptr %5, i64 56
  %7 = load ptr, ptr %6, align 8
  %.not = icmp eq ptr %7, null
  br i1 %.not, label %10, label %8

8:                                                ; preds = %3
  %9 = tail call ptr %7(ptr noundef nonnull %0, ptr noundef %1, ptr noundef %2) #6
  br label %11

10:                                               ; preds = %3
  store ptr null, ptr %1, align 8
  store i32 0, ptr %2, align 4
  br label %11

11:                                               ; preds = %10, %8
  %.0 = phi ptr [ %9, %8 ], [ null, %10 ]
  ret ptr %.0
}

; Function Attrs: mustprogress nocallback nofree nosync nounwind willreturn memory(inaccessiblemem: write)
declare void @llvm.assume(i1 noundef) #5


!llvm.module.flags = !{!0, !1, !2, !3}

!0 = !{i32 1, !"wchar_size", i32 4}
!1 = !{i32 8, !"PIC Level", i32 2}
!2 = !{i32 7, !"uwtable", i32 2}
!3 = !{i32 7, !"frame-pointer", i32 2}
